Certificate:
    Data:
        Version: 1 (0x0)
        Serial Number: 1 (0x1)
        Signature Algorithm: md5WithRSAEncryption
        Issuer: C=IE, ST=Ireland, L=Waterford, O=FeedHenry, CN=Martin Murphy/emailAddress=martin.murphy@feedhenry.com
        Validity
            Not Before: Feb 15 13:07:06 2011 GMT
            Not After : Feb 15 13:07:06 2012 GMT
        Subject: C=IE, ST=Ireland, L=Waterford, O=FeedHenry, CN=apps.feedhenry.example.com/emailAddress=martin.murphy@feedhenry.com
        Subject Public Key Info:
            Public Key Algorithm: rsaEncryption
            RSA Public Key: (1024 bit)
                Modulus (1024 bit):
                    00:bf:df:30:c5:33:9f:cd:f6:f9:83:34:5d:3b:da:
                    d4:f6:ce:d7:6b:e4:d9:3f:65:26:fc:46:db:08:de:
                    74:b2:f9:e5:9e:78:e2:0e:22:dd:4c:34:61:5b:74:
                    44:98:8a:0a:b2:4c:e1:92:2c:29:c6:14:28:ae:8e:
                    e7:d3:ef:92:13:e6:f3:d7:10:cc:0b:99:f5:0d:49:
                    86:ea:f5:f4:61:6a:9d:15:cc:af:ca:ad:6d:da:4a:
                    a7:85:a8:89:8b:71:e7:1b:2d:a6:63:52:fd:0e:fd:
                    66:25:aa:9a:d9:54:76:53:cd:f0:13:e6:45:d4:0b:
                    71:28:be:a7:1b:f6:6f:14:87
                Exponent: 65537 (0x10001)
    Signature Algorithm: md5WithRSAEncryption
        ae:1f:bc:5f:0c:05:92:8a:0a:44:ff:1f:34:6f:12:79:db:ff:
        6f:f2:e1:01:d6:cc:4b:ef:1f:09:62:b2:14:52:be:ea:73:20:
        22:d9:3b:b0:57:85:e9:8f:e0:26:aa:48:c3:98:35:2f:68:53:
        ef:c4:93:de:fa:26:9f:d2:08:7e:b5:63:81:80:24:7c:a8:e6:
        51:ff:15:1a:ca:b0:18:a2:88:27:b0:41:ed:29:cd:d9:11:f3:
        88:84:02:81:26:74:1f:2e:2c:a0:67:61:dd:0a:15:62:1e:27:
        81:be:aa:1b:7d:cc:be:87:35:96:18:99:c8:e4:8a:9d:be:63:
        42:7a
-----BEGIN CERTIFICATE-----
MIIClDCCAf0CAQEwDQYJKoZIhvcNAQEEBQAwgYsxCzAJBgNVBAYTAklFMRAwDgYD
VQQIEwdJcmVsYW5kMRIwEAYDVQQHEwlXYXRlcmZvcmQxEjAQBgNVBAoTCUZlZWRI
ZW5yeTEWMBQGA1UEAxMNTWFydGluIE11cnBoeTEqMCgGCSqGSIb3DQEJARYbbWFy
dGluLm11cnBoeUBmZWVkaGVucnkuY29tMB4XDTExMDIxNTEzMDcwNloXDTEyMDIx
NTEzMDcwNlowgZgxCzAJBgNVBAYTAklFMRAwDgYDVQQIEwdJcmVsYW5kMRIwEAYD
VQQHEwlXYXRlcmZvcmQxEjAQBgNVBAoTCUZlZWRIZW5yeTEjMCEGA1UEAxMaYXBw
cy5mZWVkaGVucnkuZXhhbXBsZS5jb20xKjAoBgkqhkiG9w0BCQEWG21hcnRpbi5t
dXJwaHlAZmVlZGhlbnJ5LmNvbTCBnzANBgkqhkiG9w0BAQEFAAOBjQAwgYkCgYEA
v98wxTOfzfb5gzRdO9rU9s7Xa+TZP2Um/EbbCN50svnlnnjiDiLdTDRhW3REmIoK
skzhkiwpxhQoro7n0++SE+bz1xDMC5n1DUmG6vX0YWqdFcyvyq1t2kqnhaiJi3Hn
Gy2mY1L9Dv1mJaqa2VR2U83wE+ZF1AtxKL6nG/ZvFIcCAwEAATANBgkqhkiG9w0B
AQQFAAOBgQCuH7xfDAWSigpE/x80bxJ52/9v8uEB1sxL7x8JYrIUUr7qcyAi2Tuw
V4Xpj+AmqkjDmDUvaFPvxJPe+iaf0gh+tWOBgCR8qOZR/xUayrAYoognsEHtKc3Z
EfOIhAKBJnQfLiygZ2HdChViHieBvqobfcy+hzWWGJnI5IqdvmNCeg==
-----END CERTIFICATE-----
